target datalayout = "e-m:e-p270:32:32-p271:32:32-p272:64:64-i64:64-i128:128-f80:128-n8:16:32:64-S128"
target triple = "x86_64-pc-linux-gnu"

; Function Attrs: mustprogress nounwind uwtable
define hidden void @_Z31mbedtls_ct_mpi_uint_cond_assignmPmPKmh(i64 noundef %0, ptr noundef %1, ptr noundef %2, i8 noundef zeroext %3) #0 {
  %5 = alloca i64, align 8
  %6 = alloca ptr, align 8
  %7 = alloca ptr, align 8
  %8 = alloca i8, align 1
  %9 = alloca i64, align 8
  %10 = alloca i64, align 8
  store i64 %0, ptr %5, align 8, !tbaa !7
  store ptr %1, ptr %6, align 8, !tbaa !16
  store ptr %2, ptr %7, align 8, !tbaa !16
  store i8 %3, ptr %8, align 1, !tbaa !11
  call void @llvm.lifetime.start.p0(i64 8, ptr %9) #5
  call void @llvm.lifetime.start.p0(i64 8, ptr %10) #5
  %11 = load i8, ptr %8, align 1, !tbaa !11
  %12 = zext i8 %11 to i32
  %13 = sub nsw i32 0, %12
  %14 = sext i32 %13 to i64
  store i64 %14, ptr %10, align 8, !tbaa !7
  store i64 0, ptr %9, align 8, !tbaa !7
  br label %15

15:                                               ; preds = %37, %4
  %16 = load i64, ptr %9, align 8, !tbaa !7
  %17 = load i64, ptr %5, align 8, !tbaa !7
  %18 = icmp ult i64 %16, %17
  br i1 %18, label %19, label %40

19:                                               ; preds = %15
  %20 = load ptr, ptr %7, align 8, !tbaa !16
  %21 = load i64, ptr %9, align 8, !tbaa !7
  %22 = getelementptr inbounds nuw i64, ptr %20, i64 %21
  %23 = load i64, ptr %22, align 8, !tbaa !7
  %24 = load i64, ptr %10, align 8, !tbaa !7
  %25 = and i64 %23, %24
  %26 = load ptr, ptr %6, align 8, !tbaa !16
  %27 = load i64, ptr %9, align 8, !tbaa !7
  %28 = getelementptr inbounds nuw i64, ptr %26, i64 %27
  %29 = load i64, ptr %28, align 8, !tbaa !7
  %30 = load i64, ptr %10, align 8, !tbaa !7
  %31 = xor i64 %30, -1
  %32 = and i64 %29, %31
  %33 = or i64 %25, %32
  %34 = load ptr, ptr %6, align 8, !tbaa !16
  %35 = load i64, ptr %9, align 8, !tbaa !7
  %36 = getelementptr inbounds nuw i64, ptr %34, i64 %35
  store i64 %33, ptr %36, align 8, !tbaa !7
  br label %37

37:                                               ; preds = %19
  %38 = load i64, ptr %9, align 8, !tbaa !7
  %39 = add i64 %38, 1
  store i64 %39, ptr %9, align 8, !tbaa !7
  br label %15, !llvm.loop !18

40:                                               ; preds = %15
  call void @llvm.lifetime.end.p0(i64 8, ptr %10) #5
  call void @llvm.lifetime.end.p0(i64 8, ptr %9) #5
  ret void
}