; Function Attrs: mustprogress nofree norecurse nosync nounwind memory(argmem: readwrite) uwtable
define hidden void @_Z31mbedtls_ct_mpi_uint_cond_assignmPmPKmh(i64 noundef %0, ptr noundef captures(none) %1, ptr noundef readonly captures(none) %2, i8 noundef zeroext %3) local_unnamed_addr #3 {
  %5 = zext i8 %3 to i64
  %6 = sub nsw i64 0, %5
  %.not = icmp eq i64 %0, 0
  br i1 %.not, label %._crit_edge, label %.lr.ph

.lr.ph:                                           ; preds = %4
  %7 = add nsw i64 %5, -1
  br label %8

8:                                                ; preds = %.lr.ph, %8
  %.011 = phi i64 [ 0, %.lr.ph ], [ %16, %8 ]
  %9 = getelementptr inbounds nuw i64, ptr %2, i64 %.011
  %10 = load i64, ptr %9, align 8, !tbaa !8
  %11 = and i64 %10, %6
  %12 = getelementptr inbounds nuw i64, ptr %1, i64 %.011
  %13 = load i64, ptr %12, align 8, !tbaa !8
  %14 = and i64 %13, %7
  %15 = or i64 %14, %11
  store i64 %15, ptr %12, align 8, !tbaa !8
  %16 = add nuw i64 %.011, 1
  %exitcond.not = icmp eq i64 %16, %0
  br i1 %exitcond.not, label %._crit_edge, label %8, !llvm.loop !10

._crit_edge:                                      ; preds = %8, %4
  ret void
}